target datalayout = "e-m:e-p270:32:32-p271:32:32-p272:64:64-i64:64-i128:128-f80:128-n8:16:32:64-S128"
target triple = "x86_64-pc-linux-gnu"

; Function Attrs: nounwind uwtable
define internal i32 @generate_p(ptr noundef %0, ptr noundef %1, i32 noundef %2, i32 noundef %3, ptr noundef %4, i64 noundef %5, ptr noundef %6, ptr noundef %7, i32 noundef %8, ptr noundef %9, ptr noundef %10, ptr noundef %11) #0 {
  %13 = alloca ptr, align 8
  %14 = alloca ptr, align 8
  %15 = alloca i32, align 4
  %16 = alloca i32, align 4
  %17 = alloca ptr, align 8
  %18 = alloca i64, align 8
  %19 = alloca ptr, align 8
  %20 = alloca ptr, align 8
  %21 = alloca i32, align 4
  %22 = alloca ptr, align 8
  %23 = alloca ptr, align 8
  %24 = alloca ptr, align 8
  %25 = alloca i32, align 4
  %26 = alloca i32, align 4
  %27 = alloca i32, align 4
  %28 = alloca i32, align 4
  %29 = alloca i32, align 4
  %30 = alloca [64 x i8], align 16
  %31 = alloca i32, align 4
  %32 = alloca ptr, align 8
  %33 = alloca ptr, align 8
  %34 = alloca ptr, align 8
  %35 = alloca ptr, align 8
  %36 = alloca ptr, align 8
  store ptr %0, ptr %13, align 8, !tbaa !24
  store ptr %1, ptr %14, align 8, !tbaa !28
  store i32 %2, ptr %15, align 4, !tbaa !10
  store i32 %3, ptr %16, align 4, !tbaa !10
  store ptr %4, ptr %17, align 8, !tbaa !18
  store i64 %5, ptr %18, align 8, !tbaa !12
  store ptr %6, ptr %19, align 8, !tbaa !20
  store ptr %7, ptr %20, align 8, !tbaa !20
  store i32 %8, ptr %21, align 4, !tbaa !10
  store ptr %9, ptr %22, align 8, !tbaa !16
  store ptr %10, ptr %23, align 8, !tbaa !14
  store ptr %11, ptr %24, align 8, !tbaa !14
  call void @llvm.lifetime.start.p0(i64 4, ptr %25) #5
  store i32 -1, ptr %25, align 4, !tbaa !10
  call void @llvm.lifetime.start.p0(i64 4, ptr %26) #5
  call void @llvm.lifetime.start.p0(i64 4, ptr %27) #5
  call void @llvm.lifetime.start.p0(i64 4, ptr %28) #5
  call void @llvm.lifetime.start.p0(i64 4, ptr %29) #5
  call void @llvm.lifetime.start.p0(i64 64, ptr %30) #5
  call void @llvm.lifetime.start.p0(i64 4, ptr %31) #5
  call void @llvm.lifetime.start.p0(i64 8, ptr %32) #5
  call void @llvm.lifetime.start.p0(i64 8, ptr %33) #5
  call void @llvm.lifetime.start.p0(i64 8, ptr %34) #5
  call void @llvm.lifetime.start.p0(i64 8, ptr %35) #5
  call void @llvm.lifetime.start.p0(i64 8, ptr %36) #5
  %37 = load ptr, ptr %13, align 8, !tbaa !24
  call void @BN_CTX_start(ptr noundef %37)
  %38 = load ptr, ptr %13, align 8, !tbaa !24
  %39 = call ptr @BN_CTX_get(ptr noundef %38)
  store ptr %39, ptr %32, align 8, !tbaa !20
  %40 = load ptr, ptr %13, align 8, !tbaa !24
  %41 = call ptr @BN_CTX_get(ptr noundef %40)
  store ptr %41, ptr %33, align 8, !tbaa !20
  %42 = load ptr, ptr %13, align 8, !tbaa !24
  %43 = call ptr @BN_CTX_get(ptr noundef %42)
  store ptr %43, ptr %35, align 8, !tbaa !20
  %44 = load ptr, ptr %13, align 8, !tbaa !24
  %45 = call ptr @BN_CTX_get(ptr noundef %44)
  store ptr %45, ptr %36, align 8, !tbaa !20
  %46 = load ptr, ptr %13, align 8, !tbaa !24
  %47 = call ptr @BN_CTX_get(ptr noundef %46)
  store ptr %47, ptr %34, align 8, !tbaa !20
  %48 = load ptr, ptr %34, align 8, !tbaa !20
  %49 = icmp eq ptr %48, null
  br i1 %49, label %50, label %51

50:                                               ; preds = %12
  br label %214

51:                                               ; preds = %12
  %52 = load ptr, ptr %36, align 8, !tbaa !20
  %53 = call ptr @BN_value_one()
  %54 = load i32, ptr %21, align 4, !tbaa !10
  %55 = sub nsw i32 %54, 1
  %56 = call i32 @BN_lshift(ptr noundef %52, ptr noundef %53, i32 noundef %55)
  %57 = icmp ne i32 %56, 0
  br i1 %57, label %59, label %58

58:                                               ; preds = %51
  br label %214

59:                                               ; preds = %51
  %60 = load ptr, ptr %14, align 8, !tbaa !28
  %61 = call i32 @EVP_MD_get_size(ptr noundef %60)
  store i32 %61, ptr %31, align 4, !tbaa !10
  %62 = load i32, ptr %31, align 4, !tbaa !10
  %63 = icmp sle i32 %62, 0
  br i1 %63, label %64, label %65

64:                                               ; preds = %59
  br label %214

65:                                               ; preds = %59
  store i32 0, ptr %26, align 4, !tbaa !10
  br label %66

66:                                               ; preds = %207, %65
  %67 = load i32, ptr %26, align 4, !tbaa !10
  %68 = load i32, ptr %15, align 4, !tbaa !10
  %69 = icmp sle i32 %67, %68
  br i1 %69, label %70, label %210

70:                                               ; preds = %66
  %71 = load i32, ptr %26, align 4, !tbaa !10
  %72 = icmp ne i32 %71, 0
  br i1 %72, label %73, label %79

73:                                               ; preds = %70
  %74 = load ptr, ptr %22, align 8, !tbaa !16
  %75 = load i32, ptr %26, align 4, !tbaa !10
  %76 = call i32 @BN_GENCB_call(ptr noundef %74, i32 noundef 0, i32 noundef %75)
  %77 = icmp ne i32 %76, 0
  br i1 %77, label %79, label %78

78:                                               ; preds = %73
  br label %214

79:                                               ; preds = %73, %70
  %80 = load ptr, ptr %32, align 8, !tbaa !20
  call void @BN_zero_ex(ptr noundef %80)
  store i32 0, ptr %27, align 4, !tbaa !10
  br label %81

81:                                               ; preds = %141, %79
  %82 = load i32, ptr %27, align 4, !tbaa !10
  %83 = load i32, ptr %16, align 4, !tbaa !10
  %84 = icmp sle i32 %82, %83
  br i1 %84, label %85, label %144

85:                                               ; preds = %81
  %86 = load i64, ptr %18, align 8, !tbaa !12
  %87 = trunc i64 %86 to i32
  %88 = sub nsw i32 %87, 1
  store i32 %88, ptr %28, align 4, !tbaa !10
  br label %89

89:                                               ; preds = %108, %85
  %90 = load i32, ptr %28, align 4, !tbaa !10
  %91 = icmp sge i32 %90, 0
  br i1 %91, label %92, label %111

92:                                               ; preds = %89
  %93 = load ptr, ptr %17, align 8, !tbaa !18
  %94 = load i32, ptr %28, align 4, !tbaa !10
  %95 = sext i32 %94 to i64
  %96 = getelementptr inbounds i8, ptr %93, i64 %95
  %97 = load i8, ptr %96, align 1, !tbaa !42
  %98 = add i8 %97, 1
  store i8 %98, ptr %96, align 1, !tbaa !42
  %99 = load ptr, ptr %17, align 8, !tbaa !18
  %100 = load i32, ptr %28, align 4, !tbaa !10
  %101 = sext i32 %100 to i64
  %102 = getelementptr inbounds i8, ptr %99, i64 %101
  %103 = load i8, ptr %102, align 1, !tbaa !42
  %104 = zext i8 %103 to i32
  %105 = icmp ne i32 %104, 0
  br i1 %105, label %106, label %107

106:                                              ; preds = %92
  br label %111

107:                                              ; preds = %92
  br label %108

108:                                              ; preds = %107
  %109 = load i32, ptr %28, align 4, !tbaa !10
  %110 = add nsw i32 %109, -1
  store i32 %110, ptr %28, align 4, !tbaa !10
  br label %89, !llvm.loop !43

111:                                              ; preds = %106, %89
  %112 = load ptr, ptr %17, align 8, !tbaa !18
  %113 = load i64, ptr %18, align 8, !tbaa !12
  %114 = getelementptr inbounds [64 x i8], ptr %30, i64 0, i64 0
  %115 = load ptr, ptr %14, align 8, !tbaa !28
  %116 = call i32 @EVP_Digest(ptr noundef %112, i64 noundef %113, ptr noundef %114, ptr noundef null, ptr noundef %115, ptr noundef null)
  %117 = icmp ne i32 %116, 0
  br i1 %117, label %118, label %139

118:                                              ; preds = %111
  %119 = getelementptr inbounds [64 x i8], ptr %30, i64 0, i64 0
  %120 = load i32, ptr %31, align 4, !tbaa !10
  %121 = load ptr, ptr %34, align 8, !tbaa !20
  %122 = call ptr @BN_bin2bn(ptr noundef %119, i32 noundef %120, ptr noundef %121)
  %123 = icmp eq ptr %122, null
  br i1 %123, label %139, label %124

124:                                              ; preds = %118
  %125 = load ptr, ptr %34, align 8, !tbaa !20
  %126 = load ptr, ptr %34, align 8, !tbaa !20
  %127 = load i32, ptr %31, align 4, !tbaa !10
  %128 = shl i32 %127, 3
  %129 = load i32, ptr %27, align 4, !tbaa !10
  %130 = mul nsw i32 %128, %129
  %131 = call i32 @BN_lshift(ptr noundef %125, ptr noundef %126, i32 noundef %130)
  %132 = icmp ne i32 %131, 0
  br i1 %132, label %133, label %139

133:                                              ; preds = %124
  %134 = load ptr, ptr %32, align 8, !tbaa !20
  %135 = load ptr, ptr %32, align 8, !tbaa !20
  %136 = load ptr, ptr %34, align 8, !tbaa !20
  %137 = call i32 @BN_add(ptr noundef %134, ptr noundef %135, ptr noundef %136)
  %138 = icmp ne i32 %137, 0
  br i1 %138, label %140, label %139

139:                                              ; preds = %133, %124, %118, %111
  br label %214

140:                                              ; preds = %133
  br label %141

141:                                              ; preds = %140
  %142 = load i32, ptr %27, align 4, !tbaa !10
  %143 = add nsw i32 %142, 1
  store i32 %143, ptr %27, align 4, !tbaa !10
  br label %81, !llvm.loop !45

144:                                              ; preds = %81
  %145 = load ptr, ptr %32, align 8, !tbaa !20
  %146 = load i32, ptr %21, align 4, !tbaa !10
  %147 = sub nsw i32 %146, 1
  %148 = call i32 @BN_mask_bits(ptr noundef %145, i32 noundef %147)
  %149 = icmp ne i32 %148, 0
  br i1 %149, label %150, label %185

150:                                              ; preds = %144
  %151 = load ptr, ptr %33, align 8, !tbaa !20
  %152 = load ptr, ptr %32, align 8, !tbaa !20
  %153 = call ptr @BN_copy(ptr noundef %151, ptr noundef %152)
  %154 = icmp ne ptr %153, null
  br i1 %154, label %155, label %185

155:                                              ; preds = %150
  %156 = load ptr, ptr %33, align 8, !tbaa !20
  %157 = load ptr, ptr %33, align 8, !tbaa !20
  %158 = load ptr, ptr %36, align 8, !tbaa !20
  %159 = call i32 @BN_add(ptr noundef %156, ptr noundef %157, ptr noundef %158)
  %160 = icmp ne i32 %159, 0
  br i1 %160, label %161, label %185

161:                                              ; preds = %155
  %162 = load ptr, ptr %34, align 8, !tbaa !20
  %163 = load ptr, ptr %19, align 8, !tbaa !20
  %164 = call i32 @BN_lshift1(ptr noundef %162, ptr noundef %163)
  %165 = icmp ne i32 %164, 0
  br i1 %165, label %166, label %185

166:                                              ; preds = %161
  %167 = load ptr, ptr %35, align 8, !tbaa !20
  %168 = load ptr, ptr %33, align 8, !tbaa !20
  %169 = load ptr, ptr %34, align 8, !tbaa !20
  %170 = load ptr, ptr %13, align 8, !tbaa !24
  %171 = call i32 @BN_div(ptr noundef null, ptr noundef %167, ptr noundef %168, ptr noundef %169, ptr noundef %170)
  %172 = icmp ne i32 %171, 0
  br i1 %172, label %173, label %185

173:                                              ; preds = %166
  %174 = load ptr, ptr %34, align 8, !tbaa !20
  %175 = load ptr, ptr %35, align 8, !tbaa !20
  %176 = call ptr @BN_value_one()
  %177 = call i32 @BN_sub(ptr noundef %174, ptr noundef %175, ptr noundef %176)
  %178 = icmp ne i32 %177, 0
  br i1 %178, label %179, label %185

179:                                              ; preds = %173
  %180 = load ptr, ptr %20, align 8, !tbaa !20
  %181 = load ptr, ptr %33, align 8, !tbaa !20
  %182 = load ptr, ptr %34, align 8, !tbaa !20
  %183 = call i32 @BN_sub(ptr noundef %180, ptr noundef %181, ptr noundef %182)
  %184 = icmp ne i32 %183, 0
  br i1 %184, label %186, label %185

185:                                              ; preds = %179, %173, %166, %161, %155, %150, %144
  br label %214

186:                                              ; preds = %179
  %187 = load ptr, ptr %20, align 8, !tbaa !20
  %188 = load ptr, ptr %36, align 8, !tbaa !20
  %189 = call i32 @BN_cmp(ptr noundef %187, ptr noundef %188)
  %190 = icmp sge i32 %189, 0
  br i1 %190, label %191, label %206

191:                                              ; preds = %186
  %192 = load ptr, ptr %20, align 8, !tbaa !20
  %193 = load ptr, ptr %13, align 8, !tbaa !24
  %194 = load ptr, ptr %22, align 8, !tbaa !16
  %195 = call i32 @BN_check_prime(ptr noundef %192, ptr noundef %193, ptr noundef %194)
  store i32 %195, ptr %29, align 4, !tbaa !10
  %196 = load i32, ptr %29, align 4, !tbaa !10
  %197 = icmp sgt i32 %196, 0
  br i1 %197, label %198, label %201

198:                                              ; preds = %191
  %199 = load i32, ptr %26, align 4, !tbaa !10
  %200 = load ptr, ptr %23, align 8, !tbaa !14
  store i32 %199, ptr %200, align 4, !tbaa !10
  store i32 1, ptr %25, align 4, !tbaa !10
  br label %214

201:                                              ; preds = %191
  %202 = load i32, ptr %29, align 4, !tbaa !10
  %203 = icmp ne i32 %202, 0
  br i1 %203, label %204, label %205

204:                                              ; preds = %201
  br label %214

205:                                              ; preds = %201
  br label %206

206:                                              ; preds = %205, %186
  br label %207

207:                                              ; preds = %206
  %208 = load i32, ptr %26, align 4, !tbaa !10
  %209 = add nsw i32 %208, 1
  store i32 %209, ptr %26, align 4, !tbaa !10
  br label %66, !llvm.loop !46

210:                                              ; preds = %66
  store i32 0, ptr %25, align 4, !tbaa !10
  %211 = load ptr, ptr %24, align 8, !tbaa !14
  %212 = load i32, ptr %211, align 4, !tbaa !10
  %213 = or i32 %212, 1
  store i32 %213, ptr %211, align 4, !tbaa !10
  br label %214

214:                                              ; preds = %210, %204, %198, %185, %139, %78, %64, %58, %50
  %215 = load ptr, ptr %13, align 8, !tbaa !24
  call void @BN_CTX_end(ptr noundef %215)
  %216 = load i32, ptr %25, align 4, !tbaa !10
  call void @llvm.lifetime.end.p0(i64 8, ptr %36) #5
  call void @llvm.lifetime.end.p0(i64 8, ptr %35) #5
  call void @llvm.lifetime.end.p0(i64 8, ptr %34) #5
  call void @llvm.lifetime.end.p0(i64 8, ptr %33) #5
  call void @llvm.lifetime.end.p0(i64 8, ptr %32) #5
  call void @llvm.lifetime.end.p0(i64 4, ptr %31) #5
  call void @llvm.lifetime.end.p0(i64 64, ptr %30) #5
  call void @llvm.lifetime.end.p0(i64 4, ptr %29) #5
  call void @llvm.lifetime.end.p0(i64 4, ptr %28) #5
  call void @llvm.lifetime.end.p0(i64 4, ptr %27) #5
  call void @llvm.lifetime.end.p0(i64 4, ptr %26) #5
  call void @llvm.lifetime.end.p0(i64 4, ptr %25) #5
  ret i32 %216
}