; Function Attrs: nounwind uwtable
define internal fastcc range(i32 -1, 2) i32 @generate_p(ptr noundef nonnull %0, ptr noundef nonnull %1, i32 noundef %2, i32 noundef %3, ptr noundef nonnull %4, i64 noundef %5, ptr noundef %6, ptr noundef %7, i32 noundef %8, ptr noundef %9, ptr noundef nonnull writeonly captures(none) %10, ptr noundef captures(none) %11) unnamed_addr #0 {
  %13 = alloca [64 x i8], align 16
  call void @llvm.lifetime.start.p0(i64 64, ptr nonnull %13) #5
  tail call void @BN_CTX_start(ptr noundef nonnull %0) #5
  %14 = tail call ptr @BN_CTX_get(ptr noundef nonnull %0) #5
  %15 = tail call ptr @BN_CTX_get(ptr noundef nonnull %0) #5
  %16 = tail call ptr @BN_CTX_get(ptr noundef nonnull %0) #5
  %17 = tail call ptr @BN_CTX_get(ptr noundef nonnull %0) #5
  %18 = tail call ptr @BN_CTX_get(ptr noundef nonnull %0) #5
  %19 = icmp eq ptr %18, null
  br i1 %19, label %.loopexit, label %20

20:                                               ; preds = %12
  %21 = tail call ptr @BN_value_one() #5
  %22 = add nsw i32 %8, -1
  %23 = tail call i32 @BN_lshift(ptr noundef %17, ptr noundef %21, i32 noundef %22) #5
  %.not = icmp eq i32 %23, 0
  br i1 %.not, label %.loopexit, label %24

24:                                               ; preds = %20
  %25 = tail call i32 @EVP_MD_get_size(ptr noundef nonnull %1) #5
  %26 = icmp slt i32 %25, 1
  br i1 %26, label %.loopexit, label %.preheader

.preheader:                                       ; preds = %24
  %.not7597 = icmp slt i32 %2, 0
  br i1 %.not7597, label %._crit_edge100, label %.lr.ph99

.lr.ph99:                                         ; preds = %.preheader
  %.not7895 = icmp slt i32 %3, 0
  %27 = shl i32 %25, 3
  %28 = and i64 %5, 4294967295
  br label %29

29:                                               ; preds = %.lr.ph99, %75
  %.06998 = phi i32 [ 0, %.lr.ph99 ], [ %76, %75 ]
  %.not76 = icmp eq i32 %.06998, 0
  br i1 %.not76, label %32, label %30

30:                                               ; preds = %29
  %31 = call i32 @BN_GENCB_call(ptr noundef %9, i32 noundef 0, i32 noundef %.06998) #5
  %.not77 = icmp eq i32 %31, 0
  br i1 %.not77, label %.loopexit, label %32

32:                                               ; preds = %30, %29
  call void @BN_zero_ex(ptr noundef %14) #5
  br i1 %.not7895, label %._crit_edge, label %.lr.ph

33:                                               ; preds = %51
  %34 = add nuw i32 %.07096, 1
  %exitcond.not = icmp eq i32 %.07096, %3
  br i1 %exitcond.not, label %._crit_edge, label %.lr.ph, !llvm.loop !24

.lr.ph:                                           ; preds = %32, %33
  %.07096 = phi i32 [ %34, %33 ], [ 0, %32 ]
  br label %35

35:                                               ; preds = %38, %.lr.ph
  %indvars.iv = phi i64 [ %39, %38 ], [ %28, %.lr.ph ]
  %36 = trunc nuw i64 %indvars.iv to i32
  %37 = icmp sgt i32 %36, 0
  br i1 %37, label %38, label %43

38:                                               ; preds = %35
  %39 = add nsw i64 %indvars.iv, -1
  %40 = getelementptr inbounds nuw i8, ptr %4, i64 %39
  %41 = load i8, ptr %40, align 1, !tbaa !23
  %42 = add i8 %41, 1
  store i8 %42, ptr %40, align 1, !tbaa !23
  %.not87 = icmp eq i8 %42, 0
  br i1 %.not87, label %35, label %43, !llvm.loop !26

43:                                               ; preds = %38, %35
  %44 = call i32 @EVP_Digest(ptr noundef nonnull %4, i64 noundef %5, ptr noundef nonnull %13, ptr noundef null, ptr noundef nonnull %1, ptr noundef null) #5
  %.not88 = icmp eq i32 %44, 0
  br i1 %.not88, label %.loopexit, label %45

45:                                               ; preds = %43
  %46 = call ptr @BN_bin2bn(ptr noundef nonnull %13, i32 noundef %25, ptr noundef nonnull %18) #5
  %47 = icmp eq ptr %46, null
  br i1 %47, label %.loopexit, label %48

48:                                               ; preds = %45
  %49 = mul nsw i32 %27, %.07096
  %50 = call i32 @BN_lshift(ptr noundef nonnull %18, ptr noundef nonnull %18, i32 noundef %49) #5
  %.not89 = icmp eq i32 %50, 0
  br i1 %.not89, label %.loopexit, label %51

51:                                               ; preds = %48
  %52 = call i32 @BN_add(ptr noundef %14, ptr noundef %14, ptr noundef nonnull %18) #5
  %.not90 = icmp eq i32 %52, 0
  br i1 %.not90, label %.loopexit, label %33

._crit_edge:                                      ; preds = %33, %32
  %53 = call i32 @BN_mask_bits(ptr noundef %14, i32 noundef %22) #5
  %.not79 = icmp eq i32 %53, 0
  br i1 %.not79, label %.loopexit, label %54

54:                                               ; preds = %._crit_edge
  %55 = call ptr @BN_copy(ptr noundef %15, ptr noundef %14) #5
  %.not80 = icmp eq ptr %55, null
  br i1 %.not80, label %.loopexit, label %56

56:                                               ; preds = %54
  %57 = call i32 @BN_add(ptr noundef %15, ptr noundef %15, ptr noundef %17) #5
  %.not81 = icmp eq i32 %57, 0
  br i1 %.not81, label %.loopexit, label %58

58:                                               ; preds = %56
  %59 = call i32 @BN_lshift1(ptr noundef nonnull %18, ptr noundef %6) #5
  %.not82 = icmp eq i32 %59, 0
  br i1 %.not82, label %.loopexit, label %60

60:                                               ; preds = %58
  %61 = call i32 @BN_div(ptr noundef null, ptr noundef %16, ptr noundef %15, ptr noundef nonnull %18, ptr noundef nonnull %0) #5
  %.not83 = icmp eq i32 %61, 0
  br i1 %.not83, label %.loopexit, label %62

62:                                               ; preds = %60
  %63 = call ptr @BN_value_one() #5
  %64 = call i32 @BN_sub(ptr noundef nonnull %18, ptr noundef %16, ptr noundef %63) #5
  %.not84 = icmp eq i32 %64, 0
  br i1 %.not84, label %.loopexit, label %65

65:                                               ; preds = %62
  %66 = call i32 @BN_sub(ptr noundef %7, ptr noundef %15, ptr noundef nonnull %18) #5
  %.not85 = icmp eq i32 %66, 0
  br i1 %.not85, label %.loopexit, label %67

67:                                               ; preds = %65
  %68 = call i32 @BN_cmp(ptr noundef %7, ptr noundef %17) #5
  %69 = icmp sgt i32 %68, -1
  br i1 %69, label %70, label %75

70:                                               ; preds = %67
  %71 = call i32 @BN_check_prime(ptr noundef %7, ptr noundef nonnull %0, ptr noundef %9) #5
  %72 = icmp sgt i32 %71, 0
  br i1 %72, label %73, label %74

73:                                               ; preds = %70
  store i32 %.06998, ptr %10, align 4, !tbaa !3
  br label %.loopexit

74:                                               ; preds = %70
  %.not86 = icmp eq i32 %71, 0
  br i1 %.not86, label %75, label %.loopexit

75:                                               ; preds = %67, %74
  %76 = add nuw i32 %.06998, 1
  %exitcond107.not = icmp eq i32 %.06998, %2
  br i1 %exitcond107.not, label %._crit_edge100, label %29, !llvm.loop !27

._crit_edge100:                                   ; preds = %75, %.preheader
  %77 = load i32, ptr %11, align 4, !tbaa !3
  %78 = or i32 %77, 1
  store i32 %78, ptr %11, align 4, !tbaa !3
  br label %.loopexit

.loopexit:                                        ; preds = %74, %._crit_edge, %54, %56, %58, %60, %62, %65, %30, %43, %45, %48, %51, %24, %20, %12, %._crit_edge100, %73
  %.0 = phi i32 [ -1, %12 ], [ -1, %24 ], [ 1, %73 ], [ 0, %._crit_edge100 ], [ -1, %20 ], [ -1, %51 ], [ -1, %48 ], [ -1, %45 ], [ -1, %43 ], [ -1, %30 ], [ -1, %65 ], [ -1, %62 ], [ -1, %60 ], [ -1, %58 ], [ -1, %56 ], [ -1, %54 ], [ -1, %._crit_edge ], [ -1, %74 ]
  call void @BN_CTX_end(ptr noundef nonnull %0) #5
  call void @llvm.lifetime.end.p0(i64 64, ptr nonnull %13) #5
  ret i32 %.0
}